; Function Attrs: mustprogress nofree norecurse nosync nounwind willreturn memory(none) uwtable
define hidden range(i32 -114, 1) i32 @psa_generic_status_to_mbedtls(i32 noundef %0) local_unnamed_addr #0 {
  switch i32 %0, label %5 [
    i32 0, label %6
    i32 -134, label %2
    i32 -151, label %3
    i32 -145, label %4
    i32 -147, label %4
  ]

2:                                                ; preds = %1
  br label %6

3:                                                ; preds = %1
  br label %6

4:                                                ; preds = %1, %1
  br label %6

5:                                                ; preds = %1
  br label %6

6:                                                ; preds = %1, %5, %4, %3, %2
  %.0 = phi i32 [ -1, %5 ], [ -112, %4 ], [ -110, %3 ], [ -114, %2 ], [ %0, %1 ]
  ret i32 %.0
}